target datalayout = "e-m:e-p270:32:32-p271:32:32-p272:64:64-i64:64-i128:128-f80:128-n8:16:32:64-S128"
target triple = "x86_64-unknown-linux-gnu"

%struct.QemuMutex = type { %union.pthread_mutex_t, i8 }
%union.pthread_mutex_t = type { %struct.__pthread_mutex_s }
%struct.__pthread_mutex_s = type { i32, i32, i32, i32, i32, i16, i16, %struct.__pthread_internal_list }
%struct.__pthread_internal_list = type { ptr, ptr }
%struct.QTailQLink = type { ptr, ptr }
%struct.CoQueue = type { %struct.anon.8 }
%struct.anon.8 = type { ptr, ptr }
%struct.MirrorBlockJob = type { %struct.BlockJob, ptr, ptr, ptr, ptr, ptr, ptr, ptr, i8, i32, i8, i32, i32, i32, i8, i8, i64, i64, i64, ptr, ptr, ptr, ptr, %struct.anon.14, i32, i64, ptr, i32, i64, %union.anon.15, i32, i8, i32, i32, i8, i32, i64, i8, i8 }
%struct.BlockJob = type { %struct.Job, i32, i64, %struct.RateLimit, ptr, %struct.Notifier, %struct.Notifier, %struct.Notifier, %struct.Notifier, %struct.Notifier, ptr }
%struct.Job = type { ptr, ptr, ptr, i8, i8, ptr, ptr, %struct.ProgressMeter, ptr, i32, i32, %struct.QEMUTimer, i32, i8, i8, i8, i8, i8, i8, i32, ptr, %struct.NotifierList, %struct.NotifierList, %struct.NotifierList, %struct.NotifierList, %struct.NotifierList, %struct.anon.11, ptr, %struct.anon.12 }
%struct.ProgressMeter = type { i64, i64, %struct.QemuMutex }
%struct.QEMUTimer = type { i64, ptr, ptr, ptr, ptr, i32, i32 }
%struct.NotifierList = type { %struct.anon.10 }
%struct.anon.10 = type { ptr }
%struct.anon.11 = type { ptr, ptr }
%struct.anon.12 = type { ptr, ptr }
%struct.RateLimit = type { %struct.QemuMutex, i64, i64, i64, i64, i64 }
%struct.Notifier = type { ptr, %struct.anon.13 }
%struct.anon.13 = type { ptr, ptr }
%struct.anon.14 = type { ptr, ptr }
%union.anon.15 = type { %struct.QTailQLink }
%struct.QEMUIOVector = type { ptr, i32, %union.anon.18 }
%union.anon.18 = type { %struct.anon.19 }
%struct.anon.19 = type { i32, %struct.iovec }
%struct.iovec = type { ptr, i64 }
%struct.MirrorOp = type { ptr, %struct.QEMUIOVector, i64, i64, ptr, i8, i8, i8, %struct.CoQueue, ptr, ptr, %union.anon.21 }
%union.anon.21 = type { %struct.QTailQLink }

@.str.1 = private unnamed_addr constant [23 x i8] c"../qemu/block/mirror.c\00", align 1
@.str.29 = private unnamed_addr constant [19 x i8] c"bytes_handled >= 0\00", align 1
@__PRETTY_FUNCTION__.mirror_perform = private unnamed_addr constant [83 x i8] c"unsigned int mirror_perform(MirrorBlockJob *, int64_t, unsigned int, MirrorMethod)\00", align 1
@.str.30 = private unnamed_addr constant [26 x i8] c"bytes_handled <= UINT_MAX\00", align 1

; Function Attrs: nounwind sspstrong uwtable
define internal i32 @mirror_perform(ptr noundef %s, i64 noundef %offset, i32 noundef %bytes, i32 noundef %mirror_method) #0 {
entry:
  %s.addr = alloca ptr, align 8
  %offset.addr = alloca i64, align 8
  %bytes.addr = alloca i32, align 4
  %mirror_method.addr = alloca i32, align 4
  %op = alloca ptr, align 8
  %co = alloca ptr, align 8
  %bytes_handled = alloca i64, align 8
  %.compoundliteral = alloca %struct.MirrorOp, align 8
  store ptr %s, ptr %s.addr, align 8
  store i64 %offset, ptr %offset.addr, align 8
  store i32 %bytes, ptr %bytes.addr, align 4
  store i32 %mirror_method, ptr %mirror_method.addr, align 4
  store i64 -1, ptr %bytes_handled, align 8
  %call = call noalias ptr @g_malloc_n(i64 noundef 1, i64 noundef 128) #10
  store ptr %call, ptr %op, align 8
  %0 = load ptr, ptr %op, align 8
  call void @llvm.memset.p0.i64(ptr align 8 %.compoundliteral, i8 0, i64 128, i1 false)
  %s1 = getelementptr inbounds %struct.MirrorOp, ptr %.compoundliteral, i32 0, i32 0
  %1 = load ptr, ptr %s.addr, align 8
  store ptr %1, ptr %s1, align 8
  %offset2 = getelementptr inbounds %struct.MirrorOp, ptr %.compoundliteral, i32 0, i32 2
  %2 = load i64, ptr %offset.addr, align 8
  store i64 %2, ptr %offset2, align 8
  %bytes3 = getelementptr inbounds %struct.MirrorOp, ptr %.compoundliteral, i32 0, i32 3
  %3 = load i32, ptr %bytes.addr, align 4
  %conv = zext i32 %3 to i64
  store i64 %conv, ptr %bytes3, align 8
  %bytes_handled4 = getelementptr inbounds %struct.MirrorOp, ptr %.compoundliteral, i32 0, i32 4
  store ptr %bytes_handled, ptr %bytes_handled4, align 8
  call void @llvm.memcpy.p0.p0.i64(ptr align 8 %0, ptr align 8 %.compoundliteral, i64 128, i1 false)
  %4 = load ptr, ptr %op, align 8
  %waiting_requests = getelementptr inbounds %struct.MirrorOp, ptr %4, i32 0, i32 8
  call void @qemu_co_queue_init(ptr noundef %waiting_requests)
  %5 = load i32, ptr %mirror_method.addr, align 4
  switch i32 %5, label %sw.default [
    i32 0, label %sw.bb
    i32 1, label %sw.bb7
    i32 2, label %sw.bb9
  ]

sw.bb:                                            ; preds = %entry
  %6 = load ptr, ptr %op, align 8
  %call6 = call ptr @qemu_coroutine_create(ptr noundef @mirror_co_read, ptr noundef %6)
  store ptr %call6, ptr %co, align 8
  br label %sw.epilog

sw.bb7:                                           ; preds = %entry
  %7 = load ptr, ptr %op, align 8
  %call8 = call ptr @qemu_coroutine_create(ptr noundef @mirror_co_zero, ptr noundef %7)
  store ptr %call8, ptr %co, align 8
  br label %sw.epilog

sw.bb9:                                           ; preds = %entry
  %8 = load ptr, ptr %op, align 8
  %call10 = call ptr @qemu_coroutine_create(ptr noundef @mirror_co_discard, ptr noundef %8)
  store ptr %call10, ptr %co, align 8
  br label %sw.epilog

sw.default:                                       ; preds = %entry
  call void @abort() #9
  unreachable

sw.epilog:                                        ; preds = %sw.bb9, %sw.bb7, %sw.bb
  %9 = load ptr, ptr %co, align 8
  %10 = load ptr, ptr %op, align 8
  %co11 = getelementptr inbounds %struct.MirrorOp, ptr %10, i32 0, i32 9
  store ptr %9, ptr %co11, align 8
  br label %do.body

do.body:                                          ; preds = %sw.epilog
  %11 = load ptr, ptr %op, align 8
  %next = getelementptr inbounds %struct.MirrorOp, ptr %11, i32 0, i32 11
  store ptr null, ptr %next, align 8
  %12 = load ptr, ptr %s.addr, align 8
  %ops_in_flight = getelementptr inbounds %struct.MirrorBlockJob, ptr %12, i32 0, i32 29
  %tql_prev = getelementptr inbounds %struct.QTailQLink, ptr %ops_in_flight, i32 0, i32 1
  %13 = load ptr, ptr %tql_prev, align 8
  %14 = load ptr, ptr %op, align 8
  %next12 = getelementptr inbounds %struct.MirrorOp, ptr %14, i32 0, i32 11
  %tql_prev13 = getelementptr inbounds %struct.QTailQLink, ptr %next12, i32 0, i32 1
  store ptr %13, ptr %tql_prev13, align 8
  %15 = load ptr, ptr %op, align 8
  %16 = load ptr, ptr %s.addr, align 8
  %ops_in_flight14 = getelementptr inbounds %struct.MirrorBlockJob, ptr %16, i32 0, i32 29
  %tql_prev15 = getelementptr inbounds %struct.QTailQLink, ptr %ops_in_flight14, i32 0, i32 1
  %17 = load ptr, ptr %tql_prev15, align 8
  %tql_next = getelementptr inbounds %struct.QTailQLink, ptr %17, i32 0, i32 0
  store ptr %15, ptr %tql_next, align 8
  %18 = load ptr, ptr %op, align 8
  %next16 = getelementptr inbounds %struct.MirrorOp, ptr %18, i32 0, i32 11
  %19 = load ptr, ptr %s.addr, align 8
  %ops_in_flight17 = getelementptr inbounds %struct.MirrorBlockJob, ptr %19, i32 0, i32 29
  %tql_prev18 = getelementptr inbounds %struct.QTailQLink, ptr %ops_in_flight17, i32 0, i32 1
  store ptr %next16, ptr %tql_prev18, align 8
  br label %do.end

do.end:                                           ; preds = %do.body
  %20 = load ptr, ptr %co, align 8
  call void @qemu_coroutine_enter(ptr noundef %20)
  %21 = load i64, ptr %bytes_handled, align 8
  %cmp = icmp sge i64 %21, 0
  br i1 %cmp, label %if.then, label %if.else

if.then:                                          ; preds = %do.end
  br label %if.end

if.else:                                          ; preds = %do.end
  call void @__assert_fail(ptr noundef @.str.29, ptr noundef @.str.1, i32 noundef 473, ptr noundef @__PRETTY_FUNCTION__.mirror_perform) #9
  unreachable

if.end:                                           ; preds = %if.then
  %22 = load i64, ptr %bytes_handled, align 8
  %cmp20 = icmp sle i64 %22, 4294967295
  br i1 %cmp20, label %if.then22, label %if.else23

if.then22:                                        ; preds = %if.end
  br label %if.end24

if.else23:                                        ; preds = %if.end
  call void @__assert_fail(ptr noundef @.str.30, ptr noundef @.str.1, i32 noundef 478, ptr noundef @__PRETTY_FUNCTION__.mirror_perform) #9
  unreachable

if.end24:                                         ; preds = %if.then22
  %23 = load i64, ptr %bytes_handled, align 8
  %conv25 = trunc i64 %23 to i32
  ret i32 %conv25
}