; Function Attrs: nounwind sspstrong uwtable
define internal fastcc i32 @mirror_perform(ptr noundef %s, i64 noundef %offset, i32 noundef %bytes, i32 noundef range(i32 0, 3) %mirror_method) unnamed_addr #0 {
entry:
  %bytes_handled = alloca i64, align 8
  store i64 -1, ptr %bytes_handled, align 8
  %call = tail call noalias dereferenceable_or_null(128) ptr @g_malloc_n(i64 noundef 1, i64 noundef 128) #14
  %conv = zext i32 %bytes to i64
  store ptr %s, ptr %call, align 8
  %.compoundliteral.sroa.3.0..sroa_idx = getelementptr inbounds nuw i8, ptr %call, i64 8
  tail call void @llvm.memset.p0.i64(ptr noundef nonnull align 8 dereferenceable(40) %.compoundliteral.sroa.3.0..sroa_idx, i8 0, i64 40, i1 false)
  %.compoundliteral.sroa.31.0..sroa_idx = getelementptr inbounds nuw i8, ptr %call, i64 48
  store i64 %offset, ptr %.compoundliteral.sroa.31.0..sroa_idx, align 8
  %.compoundliteral.sroa.4.0..sroa_idx = getelementptr inbounds nuw i8, ptr %call, i64 56
  store i64 %conv, ptr %.compoundliteral.sroa.4.0..sroa_idx, align 8
  %.compoundliteral.sroa.5.0..sroa_idx = getelementptr inbounds nuw i8, ptr %call, i64 64
  store ptr %bytes_handled, ptr %.compoundliteral.sroa.5.0..sroa_idx, align 8
  %.compoundliteral.sroa.6.0..sroa_idx = getelementptr inbounds nuw i8, ptr %call, i64 72
  call void @llvm.memset.p0.i64(ptr noundef nonnull align 8 dereferenceable(56) %.compoundliteral.sroa.6.0..sroa_idx, i8 0, i64 56, i1 false)
  %waiting_requests = getelementptr inbounds nuw i8, ptr %call, i64 80
  call void @qemu_co_queue_init(ptr noundef nonnull %waiting_requests) #12
  %0 = zext nneg i32 %mirror_method to i64
  %switch.gep = getelementptr inbounds nuw [3 x ptr], ptr @switch.table.mirror_perform, i64 0, i64 %0
  %switch.load = load ptr, ptr %switch.gep, align 8
  %call10 = call ptr @qemu_coroutine_create(ptr noundef nonnull %switch.load, ptr noundef nonnull %call) #12
  %co11 = getelementptr inbounds nuw i8, ptr %call, i64 96
  store ptr %call10, ptr %co11, align 8
  %next = getelementptr inbounds nuw i8, ptr %call, i64 112
  store ptr null, ptr %next, align 8
  %tql_prev = getelementptr inbounds nuw i8, ptr %s, i64 728
  %1 = load ptr, ptr %tql_prev, align 8
  %tql_prev13 = getelementptr inbounds nuw i8, ptr %call, i64 120
  store ptr %1, ptr %tql_prev13, align 8
  store ptr %call, ptr %1, align 8
  store ptr %next, ptr %tql_prev, align 8
  call void @qemu_coroutine_enter(ptr noundef %call10) #12
  %2 = load i64, ptr %bytes_handled, align 8
  %cmp = icmp sgt i64 %2, -1
  br i1 %cmp, label %if.end, label %if.else

if.else:                                          ; preds = %entry
  call void @__assert_fail(ptr noundef nonnull @.str.29, ptr noundef nonnull @.str.1, i32 noundef 473, ptr noundef nonnull @__PRETTY_FUNCTION__.mirror_perform) #13
  unreachable

if.end:                                           ; preds = %entry
  %cmp20 = icmp samesign ult i64 %2, 4294967296
  br i1 %cmp20, label %if.end24, label %if.else23

if.else23:                                        ; preds = %if.end
  call void @__assert_fail(ptr noundef nonnull @.str.30, ptr noundef nonnull @.str.1, i32 noundef 478, ptr noundef nonnull @__PRETTY_FUNCTION__.mirror_perform) #13
  unreachable

if.end24:                                         ; preds = %if.end
  %conv25 = trunc nuw i64 %2 to i32
  ret i32 %conv25
}